#include <math.h>
#include <stdio.h>
#include <stdlib.h>
#include <string.h>

int main()
{
    int x1,y1;
    scanf("%d %d",&x1,&y1);
    int a[101][101];
    int i,j;
    for(i=0;i<=x1-1;i++)
    {
        for(j=0;j<=y1-1;j++)
          {
              scanf("%d",&a[i][j]);           
             
          }                
                        
    }
    
    int x2,y2;
    scanf("%d %d",&x2,&y2);
    int b[101][101];
    
    for(i=0;i<=x2-1;i++)
    {
        for(j=0;j<=y2-1;j++)
          {
              scanf("%d",&b[i][j]);           
             
          }                
                        
    }
    
    
    int c[101][101];
    int x3;
    int y3;
    x3=x1;
    y3=y2;
    for(i=0;i<=x3-1;i++)
     {
         for(j=0;j<=y3-1;j++)   
              {
                         int he=0;
                         for(int k=0;k<=x2;k++)
                           he=he+a[i][k]*b[k][j];     
                          c[i][j]=he;  
              }            
                        
     }
    
    
    for(i=0;i<=x1-1;i++)
      {
             for(j=0;j<=y2-1;j++)
             {
                                 
               if(j==0) printf("%d",c[i][j]);
               else printf(" %d",c[i][j]);
             }           
         printf("\n");               
                        
      }
    
    
    getchar();
    getchar();
    
}
