target datalayout = "e-m:e-p270:32:32-p271:32:32-p272:64:64-i64:64-f80:128-n8:16:32:64-S128"
target triple = "x86_64-pc-linux-gnu"

@.str = private unnamed_addr constant [6 x i8] c"%d %d\00", align 1
@.str.1 = private unnamed_addr constant [3 x i8] c"%d\00", align 1
@.str.2 = private unnamed_addr constant [4 x i8] c" %d\00", align 1
@.str.3 = private unnamed_addr constant [2 x i8] c"\0A\00", align 1

; Function Attrs: noinline nounwind uwtable
define dso_local i32 @main() #0 {
  %1 = alloca i32, align 4
  %2 = alloca i32, align 4
  %3 = alloca i32, align 4
  %4 = alloca [101 x [101 x i32]], align 16
  %5 = alloca i32, align 4
  %6 = alloca i32, align 4
  %7 = alloca i32, align 4
  %8 = alloca i32, align 4
  %9 = alloca [101 x [101 x i32]], align 16
  %10 = alloca [101 x [101 x i32]], align 16
  %11 = alloca i32, align 4
  %12 = alloca i32, align 4
  %13 = alloca i32, align 4
  %14 = alloca i32, align 4
  store i32 0, i32* %1, align 4
  %15 = call i32 (i8*, ...) @__isoc99_scanf(i8* getelementptr inbounds ([6 x i8], [6 x i8]* @.str, i64 0, i64 0), i32* %2, i32* %3)
  store i32 0, i32* %5, align 4
  br label %16

16:                                               ; preds = %39, %0
  %17 = load i32, i32* %5, align 4
  %18 = load i32, i32* %2, align 4
  %19 = sub nsw i32 %18, 1
  %20 = icmp sle i32 %17, %19
  br i1 %20, label %21, label %42

21:                                               ; preds = %16
  store i32 0, i32* %6, align 4
  br label %22

22:                                               ; preds = %35, %21
  %23 = load i32, i32* %6, align 4
  %24 = load i32, i32* %3, align 4
  %25 = sub nsw i32 %24, 1
  %26 = icmp sle i32 %23, %25
  br i1 %26, label %27, label %38

27:                                               ; preds = %22
  %28 = load i32, i32* %5, align 4
  %29 = sext i32 %28 to i64
  %30 = getelementptr inbounds [101 x [101 x i32]], [101 x [101 x i32]]* %4, i64 0, i64 %29
  %31 = load i32, i32* %6, align 4
  %32 = sext i32 %31 to i64
  %33 = getelementptr inbounds [101 x i32], [101 x i32]* %30, i64 0, i64 %32
  %34 = call i32 (i8*, ...) @__isoc99_scanf(i8* getelementptr inbounds ([3 x i8], [3 x i8]* @.str.1, i64 0, i64 0), i32* %33)
  br label %35

35:                                               ; preds = %27
  %36 = load i32, i32* %6, align 4
  %37 = add nsw i32 %36, 1
  store i32 %37, i32* %6, align 4
  br label %22

38:                                               ; preds = %22
  br label %39

39:                                               ; preds = %38
  %40 = load i32, i32* %5, align 4
  %41 = add nsw i32 %40, 1
  store i32 %41, i32* %5, align 4
  br label %16

42:                                               ; preds = %16
  %43 = call i32 (i8*, ...) @__isoc99_scanf(i8* getelementptr inbounds ([6 x i8], [6 x i8]* @.str, i64 0, i64 0), i32* %7, i32* %8)
  store i32 0, i32* %5, align 4
  br label %44

44:                                               ; preds = %67, %42
  %45 = load i32, i32* %5, align 4
  %46 = load i32, i32* %7, align 4
  %47 = sub nsw i32 %46, 1
  %48 = icmp sle i32 %45, %47
  br i1 %48, label %49, label %70

49:                                               ; preds = %44
  store i32 0, i32* %6, align 4
  br label %50

50:                                               ; preds = %63, %49
  %51 = load i32, i32* %6, align 4
  %52 = load i32, i32* %8, align 4
  %53 = sub nsw i32 %52, 1
  %54 = icmp sle i32 %51, %53
  br i1 %54, label %55, label %66

55:                                               ; preds = %50
  %56 = load i32, i32* %5, align 4
  %57 = sext i32 %56 to i64
  %58 = getelementptr inbounds [101 x [101 x i32]], [101 x [101 x i32]]* %9, i64 0, i64 %57
  %59 = load i32, i32* %6, align 4
  %60 = sext i32 %59 to i64
  %61 = getelementptr inbounds [101 x i32], [101 x i32]* %58, i64 0, i64 %60
  %62 = call i32 (i8*, ...) @__isoc99_scanf(i8* getelementptr inbounds ([3 x i8], [3 x i8]* @.str.1, i64 0, i64 0), i32* %61)
  br label %63

63:                                               ; preds = %55
  %64 = load i32, i32* %6, align 4
  %65 = add nsw i32 %64, 1
  store i32 %65, i32* %6, align 4
  br label %50

66:                                               ; preds = %50
  br label %67

67:                                               ; preds = %66
  %68 = load i32, i32* %5, align 4
  %69 = add nsw i32 %68, 1
  store i32 %69, i32* %5, align 4
  br label %44

70:                                               ; preds = %44
  %71 = load i32, i32* %2, align 4
  store i32 %71, i32* %11, align 4
  %72 = load i32, i32* %8, align 4
  store i32 %72, i32* %12, align 4
  store i32 0, i32* %5, align 4
  br label %73

73:                                               ; preds = %122, %70
  %74 = load i32, i32* %5, align 4
  %75 = load i32, i32* %11, align 4
  %76 = sub nsw i32 %75, 1
  %77 = icmp sle i32 %74, %76
  br i1 %77, label %78, label %125

78:                                               ; preds = %73
  store i32 0, i32* %6, align 4
  br label %79

79:                                               ; preds = %118, %78
  %80 = load i32, i32* %6, align 4
  %81 = load i32, i32* %12, align 4
  %82 = sub nsw i32 %81, 1
  %83 = icmp sle i32 %80, %82
  br i1 %83, label %84, label %121

84:                                               ; preds = %79
  store i32 0, i32* %13, align 4
  store i32 0, i32* %14, align 4
  br label %85

85:                                               ; preds = %107, %84
  %86 = load i32, i32* %14, align 4
  %87 = load i32, i32* %7, align 4
  %88 = icmp sle i32 %86, %87
  br i1 %88, label %89, label %110

89:                                               ; preds = %85
  %90 = load i32, i32* %13, align 4
  %91 = load i32, i32* %5, align 4
  %92 = sext i32 %91 to i64
  %93 = getelementptr inbounds [101 x [101 x i32]], [101 x [101 x i32]]* %4, i64 0, i64 %92
  %94 = load i32, i32* %14, align 4
  %95 = sext i32 %94 to i64
  %96 = getelementptr inbounds [101 x i32], [101 x i32]* %93, i64 0, i64 %95
  %97 = load i32, i32* %96, align 4
  %98 = load i32, i32* %14, align 4
  %99 = sext i32 %98 to i64
  %100 = getelementptr inbounds [101 x [101 x i32]], [101 x [101 x i32]]* %9, i64 0, i64 %99
  %101 = load i32, i32* %6, align 4
  %102 = sext i32 %101 to i64
  %103 = getelementptr inbounds [101 x i32], [101 x i32]* %100, i64 0, i64 %102
  %104 = load i32, i32* %103, align 4
  %105 = mul nsw i32 %97, %104
  %106 = add nsw i32 %90, %105
  store i32 %106, i32* %13, align 4
  br label %107

107:                                              ; preds = %89
  %108 = load i32, i32* %14, align 4
  %109 = add nsw i32 %108, 1
  store i32 %109, i32* %14, align 4
  br label %85

110:                                              ; preds = %85
  %111 = load i32, i32* %13, align 4
  %112 = load i32, i32* %5, align 4
  %113 = sext i32 %112 to i64
  %114 = getelementptr inbounds [101 x [101 x i32]], [101 x [101 x i32]]* %10, i64 0, i64 %113
  %115 = load i32, i32* %6, align 4
  %116 = sext i32 %115 to i64
  %117 = getelementptr inbounds [101 x i32], [101 x i32]* %114, i64 0, i64 %116
  store i32 %111, i32* %117, align 4
  br label %118

118:                                              ; preds = %110
  %119 = load i32, i32* %6, align 4
  %120 = add nsw i32 %119, 1
  store i32 %120, i32* %6, align 4
  br label %79

121:                                              ; preds = %79
  br label %122

122:                                              ; preds = %121
  %123 = load i32, i32* %5, align 4
  %124 = add nsw i32 %123, 1
  store i32 %124, i32* %5, align 4
  br label %73

125:                                              ; preds = %73
  store i32 0, i32* %5, align 4
  br label %126

126:                                              ; preds = %164, %125
  %127 = load i32, i32* %5, align 4
  %128 = load i32, i32* %2, align 4
  %129 = sub nsw i32 %128, 1
  %130 = icmp sle i32 %127, %129
  br i1 %130, label %131, label %167

131:                                              ; preds = %126
  store i32 0, i32* %6, align 4
  br label %132

132:                                              ; preds = %159, %131
  %133 = load i32, i32* %6, align 4
  %134 = load i32, i32* %8, align 4
  %135 = sub nsw i32 %134, 1
  %136 = icmp sle i32 %133, %135
  br i1 %136, label %137, label %162

137:                                              ; preds = %132
  %138 = load i32, i32* %6, align 4
  %139 = icmp eq i32 %138, 0
  br i1 %139, label %140, label %149

140:                                              ; preds = %137
  %141 = load i32, i32* %5, align 4
  %142 = sext i32 %141 to i64
  %143 = getelementptr inbounds [101 x [101 x i32]], [101 x [101 x i32]]* %10, i64 0, i64 %142
  %144 = load i32, i32* %6, align 4
  %145 = sext i32 %144 to i64
  %146 = getelementptr inbounds [101 x i32], [101 x i32]* %143, i64 0, i64 %145
  %147 = load i32, i32* %146, align 4
  %148 = call i32 (i8*, ...) @printf(i8* getelementptr inbounds ([3 x i8], [3 x i8]* @.str.1, i64 0, i64 0), i32 %147)
  br label %158

149:                                              ; preds = %137
  %150 = load i32, i32* %5, align 4
  %151 = sext i32 %150 to i64
  %152 = getelementptr inbounds [101 x [101 x i32]], [101 x [101 x i32]]* %10, i64 0, i64 %151
  %153 = load i32, i32* %6, align 4
  %154 = sext i32 %153 to i64
  %155 = getelementptr inbounds [101 x i32], [101 x i32]* %152, i64 0, i64 %154
  %156 = load i32, i32* %155, align 4
  %157 = call i32 (i8*, ...) @printf(i8* getelementptr inbounds ([4 x i8], [4 x i8]* @.str.2, i64 0, i64 0), i32 %156)
  br label %158

158:                                              ; preds = %149, %140
  br label %159

159:                                              ; preds = %158
  %160 = load i32, i32* %6, align 4
  %161 = add nsw i32 %160, 1
  store i32 %161, i32* %6, align 4
  br label %132

162:                                              ; preds = %132
  %163 = call i32 (i8*, ...) @printf(i8* getelementptr inbounds ([2 x i8], [2 x i8]* @.str.3, i64 0, i64 0))
  br label %164

164:                                              ; preds = %162
  %165 = load i32, i32* %5, align 4
  %166 = add nsw i32 %165, 1
  store i32 %166, i32* %5, align 4
  br label %126

167:                                              ; preds = %126
  %168 = call i32 @getchar()
  %169 = call i32 @getchar()
  %170 = load i32, i32* %1, align 4
  ret i32 %170
}